target datalayout = "e-m:e-p270:32:32-p271:32:32-p272:64:64-i64:64-i128:128-f80:128-n8:16:32:64-S128"
target triple = "x86_64-unknown-linux-gnu"

%struct.target_siginfo = type { i32, i32, i32, %union.anon.6 }
%union.anon.6 = type { %struct.anon.10, [80 x i8] }
%struct.anon.10 = type { i32, i32, i32, i64, i64 }
%struct.anon.7 = type { i32, i32 }
%struct.anon.8 = type { i32, i32 }
%struct.anon.12 = type { i32, i32 }
%struct.anon.11 = type { i64 }
%struct.anon.9 = type { i32, i32, %union.target_sigval }
%union.target_sigval = type { i64 }

@.str = private unnamed_addr constant [28 x i8] c"../qemu/linux-user/signal.c\00", align 1
@__func__.tswap_siginfo = private unnamed_addr constant [14 x i8] c"tswap_siginfo\00", align 1
@.str.3 = private unnamed_addr constant [49 x i8] c"start >= 0 && length > 0 && length <= 32 - start\00", align 1
@.str.4 = private unnamed_addr constant [100 x i8] c"/home/dtcxzyw/WorkSpace/Projects/compilers/llvm-opt-benchmark/bench/qemu/qemu/include/qemu/bitops.h\00", align 1
@__PRETTY_FUNCTION__.extract32 = private unnamed_addr constant [39 x i8] c"uint32_t extract32(uint32_t, int, int)\00", align 1
@__PRETTY_FUNCTION__.sextract32 = private unnamed_addr constant [39 x i8] c"int32_t sextract32(uint32_t, int, int)\00", align 1

; Function Attrs: nounwind sspstrong uwtable
define internal void @stq_he_p(ptr noundef %ptr, i64 noundef %v) #0 {
entry:
  %ptr.addr = alloca ptr, align 8
  %v.addr = alloca i64, align 8
  store ptr %ptr, ptr %ptr.addr, align 8
  store i64 %v, ptr %v.addr, align 8
  %0 = load ptr, ptr %ptr.addr, align 8
  call void @llvm.memcpy.p0.p0.i64(ptr align 1 %0, ptr align 8 %v.addr, i64 8, i1 false)
  ret void
}

; Function Attrs: nounwind sspstrong uwtable
define internal void @stl_he_p(ptr noundef %ptr, i32 noundef %v) #0 {
entry:
  %ptr.addr = alloca ptr, align 8
  %v.addr = alloca i32, align 4
  store ptr %ptr, ptr %ptr.addr, align 8
  store i32 %v, ptr %v.addr, align 4
  %0 = load ptr, ptr %ptr.addr, align 8
  call void @llvm.memcpy.p0.p0.i64(ptr align 1 %0, ptr align 4 %v.addr, i64 4, i1 false)
  ret void
}

; Function Attrs: nounwind sspstrong uwtable
define internal void @stq_le_p(ptr noundef %ptr, i64 noundef %v) #0 {
entry:
  %ptr.addr = alloca ptr, align 8
  %v.addr = alloca i64, align 8
  store ptr %ptr, ptr %ptr.addr, align 8
  store i64 %v, ptr %v.addr, align 8
  %0 = load ptr, ptr %ptr.addr, align 8
  %1 = load i64, ptr %v.addr, align 8
  call void @stq_he_p(ptr noundef %0, i64 noundef %1)
  ret void
}

; Function Attrs: nounwind sspstrong uwtable
define internal void @stl_le_p(ptr noundef %ptr, i32 noundef %v) #0 {
entry:
  %ptr.addr = alloca ptr, align 8
  %v.addr = alloca i32, align 4
  store ptr %ptr, ptr %ptr.addr, align 8
  store i32 %v, ptr %v.addr, align 4
  %0 = load ptr, ptr %ptr.addr, align 8
  %1 = load i32, ptr %v.addr, align 4
  call void @stl_he_p(ptr noundef %0, i32 noundef %1)
  ret void
}

; Function Attrs: nounwind sspstrong uwtable
define internal i32 @sextract32(i32 noundef %value, i32 noundef %start, i32 noundef %length) #0 {
entry:
  %value.addr = alloca i32, align 4
  %start.addr = alloca i32, align 4
  %length.addr = alloca i32, align 4
  store i32 %value, ptr %value.addr, align 4
  store i32 %start, ptr %start.addr, align 4
  store i32 %length, ptr %length.addr, align 4
  %0 = load i32, ptr %start.addr, align 4
  %cmp = icmp sge i32 %0, 0
  br i1 %cmp, label %land.lhs.true, label %if.else

land.lhs.true:                                    ; preds = %entry
  %1 = load i32, ptr %length.addr, align 4
  %cmp1 = icmp sgt i32 %1, 0
  br i1 %cmp1, label %land.lhs.true2, label %if.else

land.lhs.true2:                                   ; preds = %land.lhs.true
  %2 = load i32, ptr %length.addr, align 4
  %3 = load i32, ptr %start.addr, align 4
  %sub = sub i32 32, %3
  %cmp3 = icmp sle i32 %2, %sub
  br i1 %cmp3, label %if.then, label %if.else

if.then:                                          ; preds = %land.lhs.true2
  br label %if.end

if.else:                                          ; preds = %land.lhs.true2, %land.lhs.true, %entry
  call void @__assert_fail(ptr noundef @.str.3, ptr noundef @.str.4, i32 noundef 417, ptr noundef @__PRETTY_FUNCTION__.sextract32) #11
  unreachable

if.end:                                           ; preds = %if.then
  %4 = load i32, ptr %value.addr, align 4
  %5 = load i32, ptr %length.addr, align 4
  %sub4 = sub i32 32, %5
  %6 = load i32, ptr %start.addr, align 4
  %sub5 = sub i32 %sub4, %6
  %shl = shl i32 %4, %sub5
  %7 = load i32, ptr %length.addr, align 4
  %sub6 = sub i32 32, %7
  %shr = ashr i32 %shl, %sub6
  ret i32 %shr
}

; Function Attrs: nounwind sspstrong uwtable
define internal i32 @extract32(i32 noundef %value, i32 noundef %start, i32 noundef %length) #0 {
entry:
  %value.addr = alloca i32, align 4
  %start.addr = alloca i32, align 4
  %length.addr = alloca i32, align 4
  store i32 %value, ptr %value.addr, align 4
  store i32 %start, ptr %start.addr, align 4
  store i32 %length, ptr %length.addr, align 4
  %0 = load i32, ptr %start.addr, align 4
  %cmp = icmp sge i32 %0, 0
  br i1 %cmp, label %land.lhs.true, label %if.else

land.lhs.true:                                    ; preds = %entry
  %1 = load i32, ptr %length.addr, align 4
  %cmp1 = icmp sgt i32 %1, 0
  br i1 %cmp1, label %land.lhs.true2, label %if.else

land.lhs.true2:                                   ; preds = %land.lhs.true
  %2 = load i32, ptr %length.addr, align 4
  %3 = load i32, ptr %start.addr, align 4
  %sub = sub i32 32, %3
  %cmp3 = icmp sle i32 %2, %sub
  br i1 %cmp3, label %if.then, label %if.else

if.then:                                          ; preds = %land.lhs.true2
  br label %if.end

if.else:                                          ; preds = %land.lhs.true2, %land.lhs.true, %entry
  call void @__assert_fail(ptr noundef @.str.3, ptr noundef @.str.4, i32 noundef 338, ptr noundef @__PRETTY_FUNCTION__.extract32) #11
  unreachable

if.end:                                           ; preds = %if.then
  %4 = load i32, ptr %value.addr, align 4
  %5 = load i32, ptr %start.addr, align 4
  %shr = lshr i32 %4, %5
  %6 = load i32, ptr %length.addr, align 4
  %sub4 = sub i32 32, %6
  %shr5 = lshr i32 -1, %sub4
  %and = and i32 %shr, %shr5
  ret i32 %and
}

; Function Attrs: nounwind sspstrong uwtable
define dso_local void @tswap_siginfo(ptr noundef %tinfo, ptr noundef %info) #0 {
entry:
  %tinfo.addr = alloca ptr, align 8
  %info.addr = alloca ptr, align 8
  %si_type = alloca i32, align 4
  %si_code1 = alloca i32, align 4
  store ptr %tinfo, ptr %tinfo.addr, align 8
  store ptr %info, ptr %info.addr, align 8
  %0 = load ptr, ptr %info.addr, align 8
  %si_code = getelementptr inbounds %struct.target_siginfo, ptr %0, i32 0, i32 2
  %1 = load i32, ptr %si_code, align 8
  %call = call i32 @extract32(i32 noundef %1, i32 noundef 16, i32 noundef 16)
  store i32 %call, ptr %si_type, align 4
  %2 = load ptr, ptr %info.addr, align 8
  %si_code2 = getelementptr inbounds %struct.target_siginfo, ptr %2, i32 0, i32 2
  %3 = load i32, ptr %si_code2, align 8
  %call3 = call i32 @sextract32(i32 noundef %3, i32 noundef 0, i32 noundef 16)
  store i32 %call3, ptr %si_code1, align 4
  br label %do.body

do.body:                                          ; preds = %entry
  %4 = load ptr, ptr %tinfo.addr, align 8
  %si_signo = getelementptr inbounds %struct.target_siginfo, ptr %4, i32 0, i32 0
  %5 = load ptr, ptr %info.addr, align 8
  %si_signo4 = getelementptr inbounds %struct.target_siginfo, ptr %5, i32 0, i32 0
  %6 = load i32, ptr %si_signo4, align 8
  call void @stl_le_p(ptr noundef %si_signo, i32 noundef %6)
  br label %do.end

do.end:                                           ; preds = %do.body
  br label %do.body5

do.body5:                                         ; preds = %do.end
  %7 = load ptr, ptr %tinfo.addr, align 8
  %si_errno = getelementptr inbounds %struct.target_siginfo, ptr %7, i32 0, i32 1
  %8 = load ptr, ptr %info.addr, align 8
  %si_errno6 = getelementptr inbounds %struct.target_siginfo, ptr %8, i32 0, i32 1
  %9 = load i32, ptr %si_errno6, align 4
  call void @stl_le_p(ptr noundef %si_errno, i32 noundef %9)
  br label %do.end7

do.end7:                                          ; preds = %do.body5
  br label %do.body8

do.body8:                                         ; preds = %do.end7
  %10 = load ptr, ptr %tinfo.addr, align 8
  %si_code9 = getelementptr inbounds %struct.target_siginfo, ptr %10, i32 0, i32 2
  %11 = load i32, ptr %si_code1, align 4
  call void @stl_le_p(ptr noundef %si_code9, i32 noundef %11)
  br label %do.end10

do.end10:                                         ; preds = %do.body8
  %12 = load i32, ptr %si_type, align 4
  switch i32 %12, label %sw.default [
    i32 0, label %sw.bb
    i32 1, label %sw.bb20
    i32 2, label %sw.bb31
    i32 3, label %sw.bb42
    i32 4, label %sw.bb48
    i32 5, label %sw.bb76
  ]

sw.bb:                                            ; preds = %do.end10
  br label %do.body11

do.body11:                                        ; preds = %sw.bb
  %13 = load ptr, ptr %tinfo.addr, align 8
  %_sifields = getelementptr inbounds %struct.target_siginfo, ptr %13, i32 0, i32 3
  %_pid = getelementptr inbounds %struct.anon.7, ptr %_sifields, i32 0, i32 0
  %14 = load ptr, ptr %info.addr, align 8
  %_sifields12 = getelementptr inbounds %struct.target_siginfo, ptr %14, i32 0, i32 3
  %_pid13 = getelementptr inbounds %struct.anon.7, ptr %_sifields12, i32 0, i32 0
  %15 = load i32, ptr %_pid13, align 8
  call void @stl_le_p(ptr noundef %_pid, i32 noundef %15)
  br label %do.end14

do.end14:                                         ; preds = %do.body11
  br label %do.body15

do.body15:                                        ; preds = %do.end14
  %16 = load ptr, ptr %tinfo.addr, align 8
  %_sifields16 = getelementptr inbounds %struct.target_siginfo, ptr %16, i32 0, i32 3
  %_uid = getelementptr inbounds %struct.anon.7, ptr %_sifields16, i32 0, i32 1
  %17 = load ptr, ptr %info.addr, align 8
  %_sifields17 = getelementptr inbounds %struct.target_siginfo, ptr %17, i32 0, i32 3
  %_uid18 = getelementptr inbounds %struct.anon.7, ptr %_sifields17, i32 0, i32 1
  %18 = load i32, ptr %_uid18, align 4
  call void @stl_le_p(ptr noundef %_uid, i32 noundef %18)
  br label %do.end19

do.end19:                                         ; preds = %do.body15
  br label %sw.epilog

sw.bb20:                                          ; preds = %do.end10
  br label %do.body21

do.body21:                                        ; preds = %sw.bb20
  %19 = load ptr, ptr %tinfo.addr, align 8
  %_sifields22 = getelementptr inbounds %struct.target_siginfo, ptr %19, i32 0, i32 3
  %_timer1 = getelementptr inbounds %struct.anon.8, ptr %_sifields22, i32 0, i32 0
  %20 = load ptr, ptr %info.addr, align 8
  %_sifields23 = getelementptr inbounds %struct.target_siginfo, ptr %20, i32 0, i32 3
  %_timer124 = getelementptr inbounds %struct.anon.8, ptr %_sifields23, i32 0, i32 0
  %21 = load i32, ptr %_timer124, align 8
  call void @stl_le_p(ptr noundef %_timer1, i32 noundef %21)
  br label %do.end25

do.end25:                                         ; preds = %do.body21
  br label %do.body26

do.body26:                                        ; preds = %do.end25
  %22 = load ptr, ptr %tinfo.addr, align 8
  %_sifields27 = getelementptr inbounds %struct.target_siginfo, ptr %22, i32 0, i32 3
  %_timer2 = getelementptr inbounds %struct.anon.8, ptr %_sifields27, i32 0, i32 1
  %23 = load ptr, ptr %info.addr, align 8
  %_sifields28 = getelementptr inbounds %struct.target_siginfo, ptr %23, i32 0, i32 3
  %_timer229 = getelementptr inbounds %struct.anon.8, ptr %_sifields28, i32 0, i32 1
  %24 = load i32, ptr %_timer229, align 4
  call void @stl_le_p(ptr noundef %_timer2, i32 noundef %24)
  br label %do.end30

do.end30:                                         ; preds = %do.body26
  br label %sw.epilog

sw.bb31:                                          ; preds = %do.end10
  br label %do.body32

do.body32:                                        ; preds = %sw.bb31
  %25 = load ptr, ptr %tinfo.addr, align 8
  %_sifields33 = getelementptr inbounds %struct.target_siginfo, ptr %25, i32 0, i32 3
  %_band = getelementptr inbounds %struct.anon.12, ptr %_sifields33, i32 0, i32 0
  %26 = load ptr, ptr %info.addr, align 8
  %_sifields34 = getelementptr inbounds %struct.target_siginfo, ptr %26, i32 0, i32 3
  %_band35 = getelementptr inbounds %struct.anon.12, ptr %_sifields34, i32 0, i32 0
  %27 = load i32, ptr %_band35, align 8
  call void @stl_le_p(ptr noundef %_band, i32 noundef %27)
  br label %do.end36

do.end36:                                         ; preds = %do.body32
  br label %do.body37

do.body37:                                        ; preds = %do.end36
  %28 = load ptr, ptr %tinfo.addr, align 8
  %_sifields38 = getelementptr inbounds %struct.target_siginfo, ptr %28, i32 0, i32 3
  %_fd = getelementptr inbounds %struct.anon.12, ptr %_sifields38, i32 0, i32 1
  %29 = load ptr, ptr %info.addr, align 8
  %_sifields39 = getelementptr inbounds %struct.target_siginfo, ptr %29, i32 0, i32 3
  %_fd40 = getelementptr inbounds %struct.anon.12, ptr %_sifields39, i32 0, i32 1
  %30 = load i32, ptr %_fd40, align 4
  call void @stl_le_p(ptr noundef %_fd, i32 noundef %30)
  br label %do.end41

do.end41:                                         ; preds = %do.body37
  br label %sw.epilog

sw.bb42:                                          ; preds = %do.end10
  br label %do.body43

do.body43:                                        ; preds = %sw.bb42
  %31 = load ptr, ptr %tinfo.addr, align 8
  %_sifields44 = getelementptr inbounds %struct.target_siginfo, ptr %31, i32 0, i32 3
  %_addr = getelementptr inbounds %struct.anon.11, ptr %_sifields44, i32 0, i32 0
  %32 = load ptr, ptr %info.addr, align 8
  %_sifields45 = getelementptr inbounds %struct.target_siginfo, ptr %32, i32 0, i32 3
  %_addr46 = getelementptr inbounds %struct.anon.11, ptr %_sifields45, i32 0, i32 0
  %33 = load i64, ptr %_addr46, align 8
  call void @stq_le_p(ptr noundef %_addr, i64 noundef %33)
  br label %do.end47

do.end47:                                         ; preds = %do.body43
  br label %sw.epilog

sw.bb48:                                          ; preds = %do.end10
  br label %do.body49

do.body49:                                        ; preds = %sw.bb48
  %34 = load ptr, ptr %tinfo.addr, align 8
  %_sifields50 = getelementptr inbounds %struct.target_siginfo, ptr %34, i32 0, i32 3
  %_pid51 = getelementptr inbounds %struct.anon.10, ptr %_sifields50, i32 0, i32 0
  %35 = load ptr, ptr %info.addr, align 8
  %_sifields52 = getelementptr inbounds %struct.target_siginfo, ptr %35, i32 0, i32 3
  %_pid53 = getelementptr inbounds %struct.anon.10, ptr %_sifields52, i32 0, i32 0
  %36 = load i32, ptr %_pid53, align 8
  call void @stl_le_p(ptr noundef %_pid51, i32 noundef %36)
  br label %do.end54

do.end54:                                         ; preds = %do.body49
  br label %do.body55

do.body55:                                        ; preds = %do.end54
  %37 = load ptr, ptr %tinfo.addr, align 8
  %_sifields56 = getelementptr inbounds %struct.target_siginfo, ptr %37, i32 0, i32 3
  %_uid57 = getelementptr inbounds %struct.anon.10, ptr %_sifields56, i32 0, i32 1
  %38 = load ptr, ptr %info.addr, align 8
  %_sifields58 = getelementptr inbounds %struct.target_siginfo, ptr %38, i32 0, i32 3
  %_uid59 = getelementptr inbounds %struct.anon.10, ptr %_sifields58, i32 0, i32 1
  %39 = load i32, ptr %_uid59, align 4
  call void @stl_le_p(ptr noundef %_uid57, i32 noundef %39)
  br label %do.end60

do.end60:                                         ; preds = %do.body55
  br label %do.body61

do.body61:                                        ; preds = %do.end60
  %40 = load ptr, ptr %tinfo.addr, align 8
  %_sifields62 = getelementptr inbounds %struct.target_siginfo, ptr %40, i32 0, i32 3
  %_status = getelementptr inbounds %struct.anon.10, ptr %_sifields62, i32 0, i32 2
  %41 = load ptr, ptr %info.addr, align 8
  %_sifields63 = getelementptr inbounds %struct.target_siginfo, ptr %41, i32 0, i32 3
  %_status64 = getelementptr inbounds %struct.anon.10, ptr %_sifields63, i32 0, i32 2
  %42 = load i32, ptr %_status64, align 8
  call void @stl_le_p(ptr noundef %_status, i32 noundef %42)
  br label %do.end65

do.end65:                                         ; preds = %do.body61
  br label %do.body66

do.body66:                                        ; preds = %do.end65
  %43 = load ptr, ptr %tinfo.addr, align 8
  %_sifields67 = getelementptr inbounds %struct.target_siginfo, ptr %43, i32 0, i32 3
  %_utime = getelementptr inbounds %struct.anon.10, ptr %_sifields67, i32 0, i32 3
  %44 = load ptr, ptr %info.addr, align 8
  %_sifields68 = getelementptr inbounds %struct.target_siginfo, ptr %44, i32 0, i32 3
  %_utime69 = getelementptr inbounds %struct.anon.10, ptr %_sifields68, i32 0, i32 3
  %45 = load i64, ptr %_utime69, align 8
  call void @stq_le_p(ptr noundef %_utime, i64 noundef %45)
  br label %do.end70

do.end70:                                         ; preds = %do.body66
  br label %do.body71

do.body71:                                        ; preds = %do.end70
  %46 = load ptr, ptr %tinfo.addr, align 8
  %_sifields72 = getelementptr inbounds %struct.target_siginfo, ptr %46, i32 0, i32 3
  %_stime = getelementptr inbounds %struct.anon.10, ptr %_sifields72, i32 0, i32 4
  %47 = load ptr, ptr %info.addr, align 8
  %_sifields73 = getelementptr inbounds %struct.target_siginfo, ptr %47, i32 0, i32 3
  %_stime74 = getelementptr inbounds %struct.anon.10, ptr %_sifields73, i32 0, i32 4
  %48 = load i64, ptr %_stime74, align 8
  call void @stq_le_p(ptr noundef %_stime, i64 noundef %48)
  br label %do.end75

do.end75:                                         ; preds = %do.body71
  br label %sw.epilog

sw.bb76:                                          ; preds = %do.end10
  br label %do.body77

do.body77:                                        ; preds = %sw.bb76
  %49 = load ptr, ptr %tinfo.addr, align 8
  %_sifields78 = getelementptr inbounds %struct.target_siginfo, ptr %49, i32 0, i32 3
  %_pid79 = getelementptr inbounds %struct.anon.9, ptr %_sifields78, i32 0, i32 0
  %50 = load ptr, ptr %info.addr, align 8
  %_sifields80 = getelementptr inbounds %struct.target_siginfo, ptr %50, i32 0, i32 3
  %_pid81 = getelementptr inbounds %struct.anon.9, ptr %_sifields80, i32 0, i32 0
  %51 = load i32, ptr %_pid81, align 8
  call void @stl_le_p(ptr noundef %_pid79, i32 noundef %51)
  br label %do.end82

do.end82:                                         ; preds = %do.body77
  br label %do.body83

do.body83:                                        ; preds = %do.end82
  %52 = load ptr, ptr %tinfo.addr, align 8
  %_sifields84 = getelementptr inbounds %struct.target_siginfo, ptr %52, i32 0, i32 3
  %_uid85 = getelementptr inbounds %struct.anon.9, ptr %_sifields84, i32 0, i32 1
  %53 = load ptr, ptr %info.addr, align 8
  %_sifields86 = getelementptr inbounds %struct.target_siginfo, ptr %53, i32 0, i32 3
  %_uid87 = getelementptr inbounds %struct.anon.9, ptr %_sifields86, i32 0, i32 1
  %54 = load i32, ptr %_uid87, align 4
  call void @stl_le_p(ptr noundef %_uid85, i32 noundef %54)
  br label %do.end88

do.end88:                                         ; preds = %do.body83
  br label %do.body89

do.body89:                                        ; preds = %do.end88
  %55 = load ptr, ptr %tinfo.addr, align 8
  %_sifields90 = getelementptr inbounds %struct.target_siginfo, ptr %55, i32 0, i32 3
  %_sigval = getelementptr inbounds %struct.anon.9, ptr %_sifields90, i32 0, i32 2
  %56 = load ptr, ptr %info.addr, align 8
  %_sifields91 = getelementptr inbounds %struct.target_siginfo, ptr %56, i32 0, i32 3
  %_sigval92 = getelementptr inbounds %struct.anon.9, ptr %_sifields91, i32 0, i32 2
  %57 = load i64, ptr %_sigval92, align 8
  call void @stq_le_p(ptr noundef %_sigval, i64 noundef %57)
  br label %do.end93

do.end93:                                         ; preds = %do.body89
  br label %sw.epilog

sw.default:                                       ; preds = %do.end10
  br label %do.body94

do.body94:                                        ; preds = %sw.default
  call void @g_assertion_message_expr(ptr noundef null, ptr noundef @.str, i32 noundef 466, ptr noundef @__func__.tswap_siginfo, ptr noundef null) #10
  unreachable

do.end95:                                         ; No predecessors!
  br label %sw.epilog

sw.epilog:                                        ; preds = %do.end95, %do.end93, %do.end75, %do.end47, %do.end41, %do.end30, %do.end19
  ret void
}