; Function Attrs: nounwind sspstrong uwtable
define dso_local void @tswap_siginfo(ptr noundef writeonly captures(none) initializes((0, 12)) %tinfo, ptr noundef readonly captures(none) %info) local_unnamed_addr #1 {
entry:
  %si_code = getelementptr inbounds nuw i8, ptr %info, i64 8
  %0 = load i32, ptr %si_code, align 8
  %shr.i = lshr i32 %0, 16
  %shl.i = shl i32 %0, 16
  %shr.i36 = ashr exact i32 %shl.i, 16
  %1 = load i32, ptr %info, align 8
  store i32 %1, ptr %tinfo, align 1
  %si_errno = getelementptr inbounds nuw i8, ptr %tinfo, i64 4
  %si_errno6 = getelementptr inbounds nuw i8, ptr %info, i64 4
  %2 = load i32, ptr %si_errno6, align 4
  store i32 %2, ptr %si_errno, align 1
  %si_code9 = getelementptr inbounds nuw i8, ptr %tinfo, i64 8
  store i32 %shr.i36, ptr %si_code9, align 1
  %trunc = trunc nuw i32 %shr.i to i16
  switch i16 %trunc, label %do.body94 [
    i16 0, label %do.body11
    i16 1, label %do.body21
    i16 2, label %do.body32
    i16 3, label %do.body43
    i16 4, label %do.body49
    i16 5, label %do.body77
  ]

do.body11:                                        ; preds = %entry
  %_sifields = getelementptr inbounds nuw i8, ptr %tinfo, i64 16
  %_sifields12 = getelementptr inbounds nuw i8, ptr %info, i64 16
  %3 = load i32, ptr %_sifields12, align 8
  store i32 %3, ptr %_sifields, align 1
  %_uid = getelementptr inbounds nuw i8, ptr %tinfo, i64 20
  %_uid18 = getelementptr inbounds nuw i8, ptr %info, i64 20
  %4 = load i32, ptr %_uid18, align 4
  store i32 %4, ptr %_uid, align 1
  br label %sw.epilog

do.body21:                                        ; preds = %entry
  %_sifields22 = getelementptr inbounds nuw i8, ptr %tinfo, i64 16
  %_sifields23 = getelementptr inbounds nuw i8, ptr %info, i64 16
  %5 = load i32, ptr %_sifields23, align 8
  store i32 %5, ptr %_sifields22, align 1
  %_timer2 = getelementptr inbounds nuw i8, ptr %tinfo, i64 20
  %_timer229 = getelementptr inbounds nuw i8, ptr %info, i64 20
  %6 = load i32, ptr %_timer229, align 4
  store i32 %6, ptr %_timer2, align 1
  br label %sw.epilog

do.body32:                                        ; preds = %entry
  %_sifields33 = getelementptr inbounds nuw i8, ptr %tinfo, i64 16
  %_sifields34 = getelementptr inbounds nuw i8, ptr %info, i64 16
  %7 = load i32, ptr %_sifields34, align 8
  store i32 %7, ptr %_sifields33, align 1
  %_fd = getelementptr inbounds nuw i8, ptr %tinfo, i64 20
  %_fd40 = getelementptr inbounds nuw i8, ptr %info, i64 20
  %8 = load i32, ptr %_fd40, align 4
  store i32 %8, ptr %_fd, align 1
  br label %sw.epilog

do.body43:                                        ; preds = %entry
  %_sifields44 = getelementptr inbounds nuw i8, ptr %tinfo, i64 16
  %_sifields45 = getelementptr inbounds nuw i8, ptr %info, i64 16
  %9 = load i64, ptr %_sifields45, align 8
  store i64 %9, ptr %_sifields44, align 1
  br label %sw.epilog

do.body49:                                        ; preds = %entry
  %_sifields50 = getelementptr inbounds nuw i8, ptr %tinfo, i64 16
  %_sifields52 = getelementptr inbounds nuw i8, ptr %info, i64 16
  %10 = load i32, ptr %_sifields52, align 8
  store i32 %10, ptr %_sifields50, align 1
  %_uid57 = getelementptr inbounds nuw i8, ptr %tinfo, i64 20
  %_uid59 = getelementptr inbounds nuw i8, ptr %info, i64 20
  %11 = load i32, ptr %_uid59, align 4
  store i32 %11, ptr %_uid57, align 1
  %_status = getelementptr inbounds nuw i8, ptr %tinfo, i64 24
  %_status64 = getelementptr inbounds nuw i8, ptr %info, i64 24
  %12 = load i32, ptr %_status64, align 8
  store i32 %12, ptr %_status, align 1
  %_utime = getelementptr inbounds nuw i8, ptr %tinfo, i64 32
  %_utime69 = getelementptr inbounds nuw i8, ptr %info, i64 32
  %13 = load i64, ptr %_utime69, align 8
  store i64 %13, ptr %_utime, align 1
  %_stime = getelementptr inbounds nuw i8, ptr %tinfo, i64 40
  %_stime74 = getelementptr inbounds nuw i8, ptr %info, i64 40
  %14 = load i64, ptr %_stime74, align 8
  store i64 %14, ptr %_stime, align 1
  br label %sw.epilog

do.body77:                                        ; preds = %entry
  %_sifields78 = getelementptr inbounds nuw i8, ptr %tinfo, i64 16
  %_sifields80 = getelementptr inbounds nuw i8, ptr %info, i64 16
  %15 = load i32, ptr %_sifields80, align 8
  store i32 %15, ptr %_sifields78, align 1
  %_uid85 = getelementptr inbounds nuw i8, ptr %tinfo, i64 20
  %_uid87 = getelementptr inbounds nuw i8, ptr %info, i64 20
  %16 = load i32, ptr %_uid87, align 4
  store i32 %16, ptr %_uid85, align 1
  %_sigval = getelementptr inbounds nuw i8, ptr %tinfo, i64 24
  %_sigval92 = getelementptr inbounds nuw i8, ptr %info, i64 24
  %17 = load i64, ptr %_sigval92, align 8
  store i64 %17, ptr %_sigval, align 1
  br label %sw.epilog

do.body94:                                        ; preds = %entry
  tail call void @g_assertion_message_expr(ptr noundef null, ptr noundef nonnull @.str, i32 noundef 466, ptr noundef nonnull @__func__.tswap_siginfo, ptr noundef null) #17
  unreachable

sw.epilog:                                        ; preds = %do.body77, %do.body49, %do.body43, %do.body32, %do.body21, %do.body11
  ret void
}